target datalayout = "e-m:e-p270:32:32-p271:32:32-p272:64:64-i64:64-i128:128-f80:128-n8:16:32:64-S128"
target triple = "x86_64-pc-linux-gnu"

%struct.ARKodeSPRKTableMem = type { i32, i32, ptr, ptr }

; Function Attrs: nounwind uwtable
define void @ARKodeSPRKTable_Free(ptr noundef %0) #0 {
  %2 = alloca ptr, align 8
  store ptr %0, ptr %2, align 8, !tbaa !10
  %3 = load ptr, ptr %2, align 8, !tbaa !10
  %4 = icmp ne ptr %3, null
  br i1 %4, label %5, label %25

5:                                                ; preds = %1
  %6 = load ptr, ptr %2, align 8, !tbaa !10
  %7 = getelementptr inbounds nuw %struct.ARKodeSPRKTableMem, ptr %6, i32 0, i32 3
  %8 = load ptr, ptr %7, align 8, !tbaa !18
  %9 = icmp ne ptr %8, null
  br i1 %9, label %10, label %14

10:                                               ; preds = %5
  %11 = load ptr, ptr %2, align 8, !tbaa !10
  %12 = getelementptr inbounds nuw %struct.ARKodeSPRKTableMem, ptr %11, i32 0, i32 3
  %13 = load ptr, ptr %12, align 8, !tbaa !18
  call void @free(ptr noundef %13) #8
  br label %14

14:                                               ; preds = %10, %5
  %15 = load ptr, ptr %2, align 8, !tbaa !10
  %16 = getelementptr inbounds nuw %struct.ARKodeSPRKTableMem, ptr %15, i32 0, i32 2
  %17 = load ptr, ptr %16, align 8, !tbaa !17
  %18 = icmp ne ptr %17, null
  br i1 %18, label %19, label %23

19:                                               ; preds = %14
  %20 = load ptr, ptr %2, align 8, !tbaa !10
  %21 = getelementptr inbounds nuw %struct.ARKodeSPRKTableMem, ptr %20, i32 0, i32 2
  %22 = load ptr, ptr %21, align 8, !tbaa !17
  call void @free(ptr noundef %22) #8
  br label %23

23:                                               ; preds = %19, %14
  %24 = load ptr, ptr %2, align 8, !tbaa !10
  call void @free(ptr noundef %24) #8
  br label %25

25:                                               ; preds = %23, %1
  ret void
}

; Function Attrs: nounwind uwtable
define ptr @ARKodeSPRKTable_Alloc(i32 noundef %0) #0 {
  %2 = alloca ptr, align 8
  %3 = alloca i32, align 4
  %4 = alloca ptr, align 8
  %5 = alloca i32, align 4
  store i32 %0, ptr %3, align 4, !tbaa !3
  call void @llvm.lifetime.start.p0(i64 8, ptr %4) #8
  store ptr null, ptr %4, align 8, !tbaa !10
  %6 = call noalias ptr @malloc(i64 noundef 24) #9
  store ptr %6, ptr %4, align 8, !tbaa !10
  %7 = load ptr, ptr %4, align 8, !tbaa !10
  %8 = icmp ne ptr %7, null
  br i1 %8, label %10, label %9

9:                                                ; preds = %1
  store ptr null, ptr %2, align 8
  store i32 1, ptr %5, align 4
  br label %42

10:                                               ; preds = %1
  %11 = load ptr, ptr %4, align 8, !tbaa !10
  call void @llvm.memset.p0.i64(ptr align 8 %11, i8 0, i64 24, i1 false)
  %12 = load i32, ptr %3, align 4, !tbaa !3
  %13 = sext i32 %12 to i64
  %14 = mul i64 %13, 8
  %15 = call noalias ptr @malloc(i64 noundef %14) #9
  %16 = load ptr, ptr %4, align 8, !tbaa !10
  %17 = getelementptr inbounds nuw %struct.ARKodeSPRKTableMem, ptr %16, i32 0, i32 3
  store ptr %15, ptr %17, align 8, !tbaa !18
  %18 = load ptr, ptr %4, align 8, !tbaa !10
  %19 = getelementptr inbounds nuw %struct.ARKodeSPRKTableMem, ptr %18, i32 0, i32 3
  %20 = load ptr, ptr %19, align 8, !tbaa !18
  %21 = icmp ne ptr %20, null
  br i1 %21, label %24, label %22

22:                                               ; preds = %10
  %23 = load ptr, ptr %4, align 8, !tbaa !10
  call void @ARKodeSPRKTable_Free(ptr noundef %23)
  store ptr null, ptr %2, align 8
  store i32 1, ptr %5, align 4
  br label %42

24:                                               ; preds = %10
  %25 = load i32, ptr %3, align 4, !tbaa !3
  %26 = sext i32 %25 to i64
  %27 = mul i64 %26, 8
  %28 = call noalias ptr @malloc(i64 noundef %27) #9
  %29 = load ptr, ptr %4, align 8, !tbaa !10
  %30 = getelementptr inbounds nuw %struct.ARKodeSPRKTableMem, ptr %29, i32 0, i32 2
  store ptr %28, ptr %30, align 8, !tbaa !17
  %31 = load ptr, ptr %4, align 8, !tbaa !10
  %32 = getelementptr inbounds nuw %struct.ARKodeSPRKTableMem, ptr %31, i32 0, i32 2
  %33 = load ptr, ptr %32, align 8, !tbaa !17
  %34 = icmp ne ptr %33, null
  br i1 %34, label %37, label %35

35:                                               ; preds = %24
  %36 = load ptr, ptr %4, align 8, !tbaa !10
  call void @ARKodeSPRKTable_Free(ptr noundef %36)
  store ptr null, ptr %2, align 8
  store i32 1, ptr %5, align 4
  br label %42

37:                                               ; preds = %24
  %38 = load i32, ptr %3, align 4, !tbaa !3
  %39 = load ptr, ptr %4, align 8, !tbaa !10
  %40 = getelementptr inbounds nuw %struct.ARKodeSPRKTableMem, ptr %39, i32 0, i32 1
  store i32 %38, ptr %40, align 4, !tbaa !12
  %41 = load ptr, ptr %4, align 8, !tbaa !10
  store ptr %41, ptr %2, align 8
  store i32 1, ptr %5, align 4
  br label %42

42:                                               ; preds = %37, %35, %22, %9
  call void @llvm.lifetime.end.p0(i64 8, ptr %4) #8
  %43 = load ptr, ptr %2, align 8
  ret ptr %43
}

; Function Attrs: nounwind uwtable
define ptr @ARKodeSPRKTable_Create(i32 noundef %0, i32 noundef %1, ptr noundef %2, ptr noundef %3) #0 {
  %5 = alloca ptr, align 8
  %6 = alloca i32, align 4
  %7 = alloca i32, align 4
  %8 = alloca ptr, align 8
  %9 = alloca ptr, align 8
  %10 = alloca ptr, align 8
  %11 = alloca i32, align 4
  %12 = alloca i32, align 4
  store i32 %0, ptr %6, align 4, !tbaa !3
  store i32 %1, ptr %7, align 4, !tbaa !3
  store ptr %2, ptr %8, align 8, !tbaa !7
  store ptr %3, ptr %9, align 8, !tbaa !7
  %13 = load i32, ptr %6, align 4, !tbaa !3
  %14 = icmp slt i32 %13, 1
  br i1 %14, label %21, label %15

15:                                               ; preds = %4
  %16 = load ptr, ptr %8, align 8, !tbaa !7
  %17 = icmp ne ptr %16, null
  br i1 %17, label %18, label %21

18:                                               ; preds = %15
  %19 = load ptr, ptr %9, align 8, !tbaa !7
  %20 = icmp ne ptr %19, null
  br i1 %20, label %22, label %21

21:                                               ; preds = %18, %15, %4
  store ptr null, ptr %5, align 8
  br label %69

22:                                               ; preds = %18
  call void @llvm.lifetime.start.p0(i64 8, ptr %10) #8
  %23 = load i32, ptr %6, align 4, !tbaa !3
  %24 = call ptr @ARKodeSPRKTable_Alloc(i32 noundef %23)
  store ptr %24, ptr %10, align 8, !tbaa !10
  %25 = load ptr, ptr %10, align 8, !tbaa !10
  %26 = icmp ne ptr %25, null
  br i1 %26, label %28, label %27

27:                                               ; preds = %22
  store ptr null, ptr %5, align 8
  store i32 1, ptr %11, align 4
  br label %68

28:                                               ; preds = %22
  %29 = load i32, ptr %6, align 4, !tbaa !3
  %30 = load ptr, ptr %10, align 8, !tbaa !10
  %31 = getelementptr inbounds nuw %struct.ARKodeSPRKTableMem, ptr %30, i32 0, i32 1
  store i32 %29, ptr %31, align 4, !tbaa !12
  %32 = load i32, ptr %7, align 4, !tbaa !3
  %33 = load ptr, ptr %10, align 8, !tbaa !10
  %34 = getelementptr inbounds nuw %struct.ARKodeSPRKTableMem, ptr %33, i32 0, i32 0
  store i32 %32, ptr %34, align 8, !tbaa !14
  call void @llvm.lifetime.start.p0(i64 4, ptr %12) #8
  store i32 0, ptr %12, align 4, !tbaa !3
  br label %35

35:                                               ; preds = %63, %28
  %36 = load i32, ptr %12, align 4, !tbaa !3
  %37 = load i32, ptr %6, align 4, !tbaa !3
  %38 = icmp slt i32 %36, %37
  br i1 %38, label %40, label %39

39:                                               ; preds = %35
  store i32 2, ptr %11, align 4
  call void @llvm.lifetime.end.p0(i64 4, ptr %12) #8
  br label %66

40:                                               ; preds = %35
  %41 = load ptr, ptr %8, align 8, !tbaa !7
  %42 = load i32, ptr %12, align 4, !tbaa !3
  %43 = sext i32 %42 to i64
  %44 = getelementptr inbounds double, ptr %41, i64 %43
  %45 = load double, ptr %44, align 8, !tbaa !15
  %46 = load ptr, ptr %10, align 8, !tbaa !10
  %47 = getelementptr inbounds nuw %struct.ARKodeSPRKTableMem, ptr %46, i32 0, i32 2
  %48 = load ptr, ptr %47, align 8, !tbaa !17
  %49 = load i32, ptr %12, align 4, !tbaa !3
  %50 = sext i32 %49 to i64
  %51 = getelementptr inbounds double, ptr %48, i64 %50
  store double %45, ptr %51, align 8, !tbaa !15
  %52 = load ptr, ptr %9, align 8, !tbaa !7
  %53 = load i32, ptr %12, align 4, !tbaa !3
  %54 = sext i32 %53 to i64
  %55 = getelementptr inbounds double, ptr %52, i64 %54
  %56 = load double, ptr %55, align 8, !tbaa !15
  %57 = load ptr, ptr %10, align 8, !tbaa !10
  %58 = getelementptr inbounds nuw %struct.ARKodeSPRKTableMem, ptr %57, i32 0, i32 3
  %59 = load ptr, ptr %58, align 8, !tbaa !18
  %60 = load i32, ptr %12, align 4, !tbaa !3
  %61 = sext i32 %60 to i64
  %62 = getelementptr inbounds double, ptr %59, i64 %61
  store double %56, ptr %62, align 8, !tbaa !15
  br label %63

63:                                               ; preds = %40
  %64 = load i32, ptr %12, align 4, !tbaa !3
  %65 = add nsw i32 %64, 1
  store i32 %65, ptr %12, align 4, !tbaa !3
  br label %35

66:                                               ; preds = %39
  %67 = load ptr, ptr %10, align 8, !tbaa !10
  store ptr %67, ptr %5, align 8
  store i32 1, ptr %11, align 4
  br label %68

68:                                               ; preds = %66, %27
  call void @llvm.lifetime.end.p0(i64 8, ptr %10) #8
  br label %69

69:                                               ; preds = %68, %21
  %70 = load ptr, ptr %5, align 8
  ret ptr %70
}