; Function Attrs: nounwind memory(readwrite, argmem: read) uwtable
define noalias noundef ptr @ARKodeSPRKTable_Create(i32 noundef %0, i32 noundef %1, ptr noundef readonly captures(address_is_null) %2, ptr noundef readonly captures(address_is_null) %3) local_unnamed_addr #0 {
  %5 = icmp sgt i32 %0, 0
  %6 = icmp ne ptr %2, null
  %or.cond = and i1 %5, %6
  %7 = icmp ne ptr %3, null
  %or.cond3 = and i1 %or.cond, %7
  br i1 %or.cond3, label %8, label %ARKodeSPRKTable_Alloc.exit.thread

8:                                                ; preds = %4
  %calloc.i = tail call dereferenceable_or_null(24) ptr @calloc(i64 1, i64 24)
  %.not.i = icmp eq ptr %calloc.i, null
  br i1 %.not.i, label %ARKodeSPRKTable_Alloc.exit.thread, label %9

9:                                                ; preds = %8
  %10 = zext nneg i32 %0 to i64
  %11 = shl nuw nsw i64 %10, 3
  %12 = tail call noalias ptr @malloc(i64 noundef %11) #13
  %13 = getelementptr inbounds nuw i8, ptr %calloc.i, i64 16
  store ptr %12, ptr %13, align 8, !tbaa !3
  %.not14.i = icmp eq ptr %12, null
  br i1 %.not14.i, label %ARKodeSPRKTable_Alloc.exit.thread.sink.split, label %14

14:                                               ; preds = %9
  %15 = tail call noalias ptr @malloc(i64 noundef %11) #13
  %16 = getelementptr inbounds nuw i8, ptr %calloc.i, i64 8
  store ptr %15, ptr %16, align 8, !tbaa !10
  %.not15.i = icmp eq ptr %15, null
  br i1 %.not15.i, label %ARKodeSPRKTable_Free.exit19.i, label %.lr.ph

ARKodeSPRKTable_Free.exit19.i:                    ; preds = %14
  tail call void @free(ptr noundef nonnull %12) #14
  br label %ARKodeSPRKTable_Alloc.exit.thread.sink.split

.lr.ph:                                           ; preds = %14
  %17 = getelementptr inbounds nuw i8, ptr %calloc.i, i64 4
  store i32 %0, ptr %17, align 4, !tbaa !11
  store i32 %1, ptr %calloc.i, align 8, !tbaa !12
  br label %18

18:                                               ; preds = %.lr.ph, %18
  %indvars.iv = phi i64 [ 0, %.lr.ph ], [ %indvars.iv.next, %18 ]
  %19 = getelementptr inbounds nuw double, ptr %2, i64 %indvars.iv
  %20 = load double, ptr %19, align 8, !tbaa !13
  %21 = getelementptr inbounds nuw double, ptr %15, i64 %indvars.iv
  store double %20, ptr %21, align 8, !tbaa !13
  %22 = getelementptr inbounds nuw double, ptr %3, i64 %indvars.iv
  %23 = load double, ptr %22, align 8, !tbaa !13
  %24 = getelementptr inbounds nuw double, ptr %12, i64 %indvars.iv
  store double %23, ptr %24, align 8, !tbaa !13
  %indvars.iv.next = add nuw nsw i64 %indvars.iv, 1
  %exitcond.not = icmp eq i64 %indvars.iv.next, %10
  br i1 %exitcond.not, label %ARKodeSPRKTable_Alloc.exit.thread, label %18

ARKodeSPRKTable_Alloc.exit.thread.sink.split:     ; preds = %9, %ARKodeSPRKTable_Free.exit19.i
  tail call void @free(ptr noundef nonnull %calloc.i) #14
  br label %ARKodeSPRKTable_Alloc.exit.thread

ARKodeSPRKTable_Alloc.exit.thread:                ; preds = %18, %ARKodeSPRKTable_Alloc.exit.thread.sink.split, %8, %4
  %.024 = phi ptr [ null, %4 ], [ null, %8 ], [ null, %ARKodeSPRKTable_Alloc.exit.thread.sink.split ], [ %calloc.i, %18 ]
  ret ptr %.024
}